; Function Attrs: mustprogress uwtable
define hidden void @_ZN3smt10theory_str22check_and_init_cut_varEP4expr(ptr noundef nonnull align 8 dereferenceable(1800) %0, ptr noundef %1) local_unnamed_addr #4 align 2 {
  %3 = getelementptr inbounds nuw i8, ptr %0, i64 672
  %4 = tail call noundef ptr @_ZNK7obj_mapI4exprSt5stackIPN3smt10theory_str5T_cutESt5dequeIS5_SaIS5_EEEE9find_coreEPS0_(ptr noundef nonnull align 8 dereferenceable(24) %3, ptr noundef %1)
  %.not = icmp eq ptr %4, null
  br i1 %.not, label %5, label %23

5:                                                ; preds = %2
  %6 = getelementptr inbounds nuw i8, ptr %0, i64 144
  %7 = load i32, ptr %6, align 8, !tbaa !164
  %8 = getelementptr inbounds nuw i8, ptr %1, i64 4
  %9 = load i32, ptr %8, align 4
  %10 = and i32 %9, 65535
  %11 = icmp eq i32 %10, 0
  br i1 %11, label %12, label %_ZNK8seq_util3str9is_stringEPK4expr.exit.thread

12:                                               ; preds = %5
  %13 = getelementptr inbounds nuw i8, ptr %1, i64 16
  %14 = load ptr, ptr %13, align 8, !tbaa !854
  %15 = getelementptr inbounds nuw i8, ptr %14, i64 24
  %16 = load ptr, ptr %15, align 8, !tbaa !855
  %.not.i.i.i.i = icmp eq ptr %16, null
  br i1 %.not.i.i.i.i, label %_ZNK8seq_util3str9is_stringEPK4expr.exit.thread, label %_ZNK8seq_util3str9is_stringEPK4expr.exit

_ZNK8seq_util3str9is_stringEPK4expr.exit:         ; preds = %12
  %17 = load i32, ptr %16, align 8, !tbaa !858
  %18 = icmp eq i32 %17, %7
  %19 = getelementptr inbounds nuw i8, ptr %16, i64 4
  %20 = load i32, ptr %19, align 4
  %21 = icmp eq i32 %20, 41
  %22 = select i1 %18, i1 %21, i1 false
  br i1 %22, label %23, label %_ZNK8seq_util3str9is_stringEPK4expr.exit.thread

_ZNK8seq_util3str9is_stringEPK4expr.exit.thread:  ; preds = %12, %5, %_ZNK8seq_util3str9is_stringEPK4expr.exit
  tail call void @_ZN3smt10theory_str21add_cut_info_one_nodeEP4expriS2_(ptr noundef nonnull align 8 dereferenceable(1800) %0, ptr noundef nonnull %1, i32 noundef -1, ptr noundef nonnull %1)
  br label %23

23:                                               ; preds = %_ZNK8seq_util3str9is_stringEPK4expr.exit, %_ZNK8seq_util3str9is_stringEPK4expr.exit.thread, %2
  ret void
}